; ModuleID = '54/875.c'
source_filename = "54/875.c"
target datalayout = "e-m:e-p270:32:32-p271:32:32-p272:64:64-i64:64-f80:128-n8:16:32:64-S128"
target triple = "x86_64-pc-linux-gnu"

@.str = private unnamed_addr constant [5 x i8] c"%d%d\00", align 1
@.str.1 = private unnamed_addr constant [3 x i8] c"%d\00", align 1

; Function Attrs: noinline nounwind uwtable
define dso_local i32 @main() #0 {
  %1 = alloca i32, align 4
  %2 = alloca i32, align 4
  %3 = alloca i32, align 4
  %4 = alloca i32, align 4
  %5 = alloca i32, align 4
  %6 = alloca i32, align 4
  %7 = alloca i32, align 4
  store i32 0, i32* %1, align 4
  store i32 1, i32* %5, align 4
  store i32 0, i32* %6, align 4
  %8 = call i32 (i8*, ...) @__isoc99_scanf(i8* getelementptr inbounds ([5 x i8], [5 x i8]* @.str, i64 0, i64 0), i32* %3, i32* %4)
  store i32 1, i32* %5, align 4
  br label %9

9:                                                ; preds = %44, %0
  %10 = load i32, i32* %6, align 4
  %11 = load i32, i32* %3, align 4
  %12 = sub nsw i32 %11, 1
  %13 = icmp slt i32 %10, %12
  br i1 %13, label %14, label %47

14:                                               ; preds = %9
  %15 = load i32, i32* %5, align 4
  store i32 %15, i32* %7, align 4
  store i32 0, i32* %6, align 4
  br label %16

16:                                               ; preds = %42, %14
  %17 = load i32, i32* %3, align 4
  %18 = load i32, i32* %7, align 4
  %19 = mul nsw i32 %17, %18
  %20 = load i32, i32* %4, align 4
  %21 = add nsw i32 %19, %20
  %22 = load i32, i32* %3, align 4
  %23 = sub nsw i32 %22, 1
  %24 = srem i32 %21, %23
  %25 = icmp eq i32 %24, 0
  br i1 %25, label %26, label %43

26:                                               ; preds = %16
  %27 = load i32, i32* %3, align 4
  %28 = load i32, i32* %7, align 4
  %29 = mul nsw i32 %27, %28
  %30 = load i32, i32* %4, align 4
  %31 = add nsw i32 %29, %30
  %32 = load i32, i32* %3, align 4
  %33 = sub nsw i32 %32, 1
  %34 = sdiv i32 %31, %33
  store i32 %34, i32* %7, align 4
  %35 = load i32, i32* %6, align 4
  %36 = add nsw i32 %35, 1
  store i32 %36, i32* %6, align 4
  %37 = load i32, i32* %6, align 4
  %38 = load i32, i32* %3, align 4
  %39 = sub nsw i32 %38, 1
  %40 = icmp eq i32 %37, %39
  br i1 %40, label %41, label %42

41:                                               ; preds = %26
  br label %43

42:                                               ; preds = %26
  br label %16

43:                                               ; preds = %41, %16
  br label %44

44:                                               ; preds = %43
  %45 = load i32, i32* %5, align 4
  %46 = add nsw i32 %45, 1
  store i32 %46, i32* %5, align 4
  br label %9

47:                                               ; preds = %9
  %48 = load i32, i32* %3, align 4
  %49 = load i32, i32* %7, align 4
  %50 = mul nsw i32 %48, %49
  %51 = load i32, i32* %4, align 4
  %52 = add nsw i32 %50, %51
  %53 = call i32 (i8*, ...) @printf(i8* getelementptr inbounds ([3 x i8], [3 x i8]* @.str.1, i64 0, i64 0), i32 %52)
  ret i32 0
}

declare dso_local i32 @__isoc99_scanf(i8*, ...) #1

declare dso_local i32 @printf(i8*, ...) #1


!llvm.module.flags = !{!0}
!llvm.ident = !{!1}

!0 = !{i32 1, !"wchar_size", i32 4}
!1 = !{!"clang version 10.0.0-4ubuntu1 "}
